target datalayout = "e-m:e-p270:32:32-p271:32:32-p272:64:64-i64:64-i128:128-f80:128-n8:16:32:64-S128"
target triple = "x86_64-pc-linux-gnu"

%struct.AVFilterContext = type { ptr, ptr, ptr, ptr, ptr, i32, ptr, ptr, i32, ptr, ptr, i32, i32, ptr, ptr, ptr, ptr, i32, ptr, i32, i32 }
%struct.LenscorrectionCtx = type { ptr, [4 x i32], [4 x i32], i32, i32, double, double, double, double, i32, [4 x i8], [4 x i32], [4 x ptr], ptr }

; Function Attrs: nounwind uwtable
define internal i32 @filter_slice(ptr noundef %0, ptr noundef %1, i32 noundef %2, i32 noundef %3) #1 {
  %5 = alloca ptr, align 8
  %6 = alloca ptr, align 8
  %7 = alloca i32, align 4
  %8 = alloca i32, align 4
  %9 = alloca ptr, align 8
  %10 = alloca i32, align 4
  store ptr %0, ptr %5, align 8, !tbaa !4
  store ptr %1, ptr %6, align 8, !tbaa !46
  store i32 %2, ptr %7, align 4, !tbaa !24
  store i32 %3, ptr %8, align 4, !tbaa !24
  call void @llvm.lifetime.start.p0(i64 8, ptr %9) #7
  %11 = load ptr, ptr %5, align 8, !tbaa !4
  %12 = getelementptr inbounds nuw %struct.AVFilterContext, ptr %11, i32 0, i32 9
  %13 = load ptr, ptr %12, align 8, !tbaa !9
  store ptr %13, ptr %9, align 8, !tbaa !22
  call void @llvm.lifetime.start.p0(i64 4, ptr %10) #7
  store i32 0, ptr %10, align 4, !tbaa !24
  br label %14

14:                                               ; preds = %31, %4
  %15 = load i32, ptr %10, align 4, !tbaa !24
  %16 = load ptr, ptr %9, align 8, !tbaa !22
  %17 = getelementptr inbounds nuw %struct.LenscorrectionCtx, ptr %16, i32 0, i32 4
  %18 = load i32, ptr %17, align 4, !tbaa !47
  %19 = icmp slt i32 %15, %18
  br i1 %19, label %21, label %20

20:                                               ; preds = %14
  call void @llvm.lifetime.end.p0(i64 4, ptr %10) #7
  br label %34

21:                                               ; preds = %14
  %22 = load ptr, ptr %9, align 8, !tbaa !22
  %23 = getelementptr inbounds nuw %struct.LenscorrectionCtx, ptr %22, i32 0, i32 13
  %24 = load ptr, ptr %23, align 8, !tbaa !50
  %25 = load ptr, ptr %5, align 8, !tbaa !4
  %26 = load ptr, ptr %6, align 8, !tbaa !46
  %27 = load i32, ptr %7, align 4, !tbaa !24
  %28 = load i32, ptr %8, align 4, !tbaa !24
  %29 = load i32, ptr %10, align 4, !tbaa !24
  %30 = call i32 %24(ptr noundef %25, ptr noundef %26, i32 noundef %27, i32 noundef %28, i32 noundef %29)
  br label %31

31:                                               ; preds = %21
  %32 = load i32, ptr %10, align 4, !tbaa !24
  %33 = add nsw i32 %32, 1
  store i32 %33, ptr %10, align 4, !tbaa !24
  br label %14, !llvm.loop !51

34:                                               ; preds = %20
  call void @llvm.lifetime.end.p0(i64 8, ptr %9) #7
  ret i32 0
}