; Function Attrs: nounwind uwtable
define internal noundef i32 @filter_slice(ptr noundef %0, ptr noundef %1, i32 noundef %2, i32 noundef %3) #1 {
  %5 = getelementptr inbounds nuw i8, ptr %0, i64 72
  %6 = load ptr, ptr %5, align 8, !tbaa !4
  %7 = getelementptr inbounds nuw i8, ptr %6, i64 44
  %8 = load i32, ptr %7, align 4, !tbaa !42
  %9 = icmp sgt i32 %8, 0
  br i1 %9, label %.lr.ph, label %._crit_edge

.lr.ph:                                           ; preds = %4
  %10 = getelementptr inbounds nuw i8, ptr %6, i64 136
  br label %11

._crit_edge:                                      ; preds = %11, %4
  ret i32 0

11:                                               ; preds = %.lr.ph, %11
  %.09 = phi i32 [ 0, %.lr.ph ], [ %14, %11 ]
  %12 = load ptr, ptr %10, align 8, !tbaa !45
  %13 = tail call i32 %12(ptr noundef nonnull %0, ptr noundef %1, i32 noundef %2, i32 noundef %3, i32 noundef %.09) #7
  %14 = add nuw nsw i32 %.09, 1
  %15 = load i32, ptr %7, align 4, !tbaa !42
  %16 = icmp slt i32 %14, %15
  br i1 %16, label %11, label %._crit_edge, !llvm.loop !46
}